; Function Attrs: nounwind uwtable
define noalias noundef ptr @Aig_ManPartitionLevelized(ptr noundef %0, i32 noundef %1) local_unnamed_addr #2 {
  %3 = tail call ptr @Aig_ManLevelize(ptr noundef %0) #18
  %4 = getelementptr i8, ptr %0, i64 32
  %.val19 = load ptr, ptr %4, align 8, !tbaa !3
  %5 = getelementptr i8, ptr %.val19, i64 4
  %.val19.val = load i32, ptr %5, align 4, !tbaa !21
  %6 = tail call noalias dereferenceable_or_null(16) ptr @malloc(i64 noundef 16) #17
  %7 = add i32 %.val19.val, -1
  %or.cond.i.i = icmp ult i32 %7, 15
  %spec.store.select.i.i = select i1 %or.cond.i.i, i32 16, i32 %.val19.val
  %8 = getelementptr inbounds nuw i8, ptr %6, i64 4
  store i32 %spec.store.select.i.i, ptr %6, align 8, !tbaa !23
  %.not.i.i = icmp eq i32 %spec.store.select.i.i, 0
  br i1 %.not.i.i, label %Vec_IntAlloc.exit.thread.i, label %Vec_IntAlloc.exit.i

Vec_IntAlloc.exit.thread.i:                       ; preds = %2
  %9 = getelementptr inbounds nuw i8, ptr %6, i64 8
  store ptr null, ptr %9, align 8, !tbaa !25
  store i32 %.val19.val, ptr %8, align 4, !tbaa !26
  br label %Vec_IntStart.exit

Vec_IntAlloc.exit.i:                              ; preds = %2
  %10 = sext i32 %spec.store.select.i.i to i64
  %11 = shl nsw i64 %10, 2
  %12 = tail call noalias ptr @malloc(i64 noundef %11) #17
  %13 = getelementptr inbounds nuw i8, ptr %6, i64 8
  store ptr %12, ptr %13, align 8, !tbaa !25
  store i32 %.val19.val, ptr %8, align 4, !tbaa !26
  %.not.i = icmp eq ptr %12, null
  br i1 %.not.i, label %Vec_IntStart.exit, label %14

14:                                               ; preds = %Vec_IntAlloc.exit.i
  %15 = sext i32 %.val19.val to i64
  %16 = shl nsw i64 %15, 2
  tail call void @llvm.memset.p0.i64(ptr nonnull align 4 %12, i8 0, i64 %16, i1 false)
  br label %Vec_IntStart.exit

Vec_IntStart.exit:                                ; preds = %Vec_IntAlloc.exit.thread.i, %Vec_IntAlloc.exit.i, %14
  %.val25 = phi ptr [ null, %Vec_IntAlloc.exit.thread.i ], [ null, %Vec_IntAlloc.exit.i ], [ %12, %14 ]
  %17 = getelementptr i8, ptr %3, i64 4
  %.val20 = load i32, ptr %17, align 4, !tbaa !27
  %18 = icmp sgt i32 %.val20, 0
  br i1 %18, label %.lr.ph33, label %.critedge.i

.lr.ph33:                                         ; preds = %Vec_IntStart.exit
  %19 = getelementptr i8, ptr %3, i64 8
  %.val21 = load ptr, ptr %19, align 8, !tbaa !29
  %20 = zext nneg i32 %.val20 to i64
  br label %22

.critedge.loopexit:                               ; preds = %30, %22
  %.1.lcssa = phi i32 [ %.031, %22 ], [ %29, %30 ]
  %21 = icmp sgt i64 %indvars.iv35, 1
  br i1 %21, label %22, label %.lr.ph.i, !llvm.loop !30

22:                                               ; preds = %.lr.ph33, %.critedge.loopexit
  %indvars.iv35 = phi i64 [ %20, %.lr.ph33 ], [ %indvars.iv.next36, %.critedge.loopexit ]
  %.031 = phi i32 [ 0, %.lr.ph33 ], [ %.1.lcssa, %.critedge.loopexit ]
  %indvars.iv.next36 = add nsw i64 %indvars.iv35, -1
  %23 = getelementptr inbounds nuw ptr, ptr %.val21, i64 %indvars.iv.next36
  %24 = load ptr, ptr %23, align 8, !tbaa !32
  %25 = getelementptr i8, ptr %24, i64 4
  %.val = load i32, ptr %25, align 4, !tbaa !21
  %26 = icmp sgt i32 %.val, 0
  br i1 %26, label %.lr.ph, label %.critedge.loopexit

.lr.ph:                                           ; preds = %22
  %27 = getelementptr i8, ptr %24, i64 8
  %.val23 = load ptr, ptr %27, align 8, !tbaa !33
  %28 = zext nneg i32 %.val to i64
  %29 = add i32 %.031, %.val
  br label %30

30:                                               ; preds = %.lr.ph, %30
  %indvars.iv = phi i64 [ %28, %.lr.ph ], [ %indvars.iv.next, %30 ]
  %.129 = phi i32 [ %.031, %.lr.ph ], [ %34, %30 ]
  %indvars.iv.next = add nsw i64 %indvars.iv, -1
  %31 = getelementptr inbounds nuw ptr, ptr %.val23, i64 %indvars.iv.next
  %32 = load ptr, ptr %31, align 8, !tbaa !32
  %33 = getelementptr i8, ptr %32, i64 36
  %.val24 = load i32, ptr %33, align 4, !tbaa !34
  %34 = add i32 %.129, 1
  %35 = sdiv i32 %.129, %1
  %36 = sext i32 %.val24 to i64
  %37 = getelementptr inbounds i32, ptr %.val25, i64 %36
  store i32 %35, ptr %37, align 4, !tbaa !35
  %exitcond.not = icmp eq i32 %34, %29
  br i1 %exitcond.not, label %.critedge.loopexit, label %30, !llvm.loop !36

.lr.ph.i:                                         ; preds = %.critedge.loopexit
  %38 = getelementptr i8, ptr %3, i64 8
  br label %39

39:                                               ; preds = %46, %.lr.ph.i
  %.val14.i = phi i32 [ %.val20, %.lr.ph.i ], [ %.val.i, %46 ]
  %indvars.iv.i = phi i64 [ 0, %.lr.ph.i ], [ %indvars.iv.next.i, %46 ]
  %.val8.i = load ptr, ptr %38, align 8, !tbaa !29
  %40 = getelementptr inbounds nuw ptr, ptr %.val8.i, i64 %indvars.iv.i
  %41 = load ptr, ptr %40, align 8, !tbaa !32
  %.not.i26 = icmp eq ptr %41, null
  br i1 %.not.i26, label %46, label %42

42:                                               ; preds = %39
  %43 = getelementptr inbounds nuw i8, ptr %41, i64 8
  %44 = load ptr, ptr %43, align 8, !tbaa !33
  %.not.i.i27 = icmp eq ptr %44, null
  br i1 %.not.i.i27, label %Vec_PtrFree.exit.i, label %45

45:                                               ; preds = %42
  tail call void @free(ptr noundef nonnull %44) #18
  br label %Vec_PtrFree.exit.i

Vec_PtrFree.exit.i:                               ; preds = %45, %42
  tail call void @free(ptr noundef nonnull %41) #18
  %.val.pre.i = load i32, ptr %17, align 4, !tbaa !27
  br label %46

46:                                               ; preds = %Vec_PtrFree.exit.i, %39
  %.val.i = phi i32 [ %.val14.i, %39 ], [ %.val.pre.i, %Vec_PtrFree.exit.i ]
  %indvars.iv.next.i = add nuw nsw i64 %indvars.iv.i, 1
  %47 = sext i32 %.val.i to i64
  %48 = icmp slt i64 %indvars.iv.next.i, %47
  br i1 %48, label %39, label %.critedge.i, !llvm.loop !37

.critedge.i:                                      ; preds = %46, %Vec_IntStart.exit
  %49 = getelementptr inbounds nuw i8, ptr %3, i64 8
  %50 = load ptr, ptr %49, align 8, !tbaa !33
  %.not.i9.i = icmp eq ptr %50, null
  br i1 %.not.i9.i, label %Vec_VecFree.exit, label %51

51:                                               ; preds = %.critedge.i
  tail call void @free(ptr noundef nonnull %50) #18
  br label %Vec_VecFree.exit

Vec_VecFree.exit:                                 ; preds = %.critedge.i, %51
  tail call void @free(ptr noundef nonnull %3) #18
  ret ptr %6
}